#include <math.h>
#include <stdio.h>
#include <stdlib.h>
#include <string.h>

void swap(char a[],int n)
{
	int i,j;
	char t;
	for(j=0;j<n;j++)
		for(i=0;i<n-j-1;i++)
		if(a[i]>a[i+1])
		{
			t=a[i];
			a[i]=a[i+1];
			a[i+1]=t;
		}

}
void main()
{
	char a[20];
	char b[20];
	scanf("%s %s",a,b);
	int al,bl;
	al=strlen(a);
	bl=strlen(b);
    swap(a,al);
	swap(b,bl);
	if(strcmp(a,b)==0)
		printf("YES\n");
	else 
		printf("NO\n");
}
